target datalayout = "e-m:e-p270:32:32-p271:32:32-p272:64:64-i64:64-i128:128-f80:128-n8:16:32:64-S128"
target triple = "x86_64-unknown-linux-gnu"

%"class.EA::UnitTest::Test" = type { ptr, %"class.eastl::basic_string", ptr, i64, i64, ptr, i8, i64 }
%"class.eastl::basic_string" = type { %"class.eastl::compressed_pair" }
%"class.eastl::compressed_pair" = type { %"class.eastl::compressed_pair_imp" }
%"class.eastl::compressed_pair_imp" = type { %"struct.eastl::basic_string<char>::Layout" }
%"struct.eastl::basic_string<char>::Layout" = type { %union.anon }
%union.anon = type { %"struct.eastl::basic_string<char>::HeapLayout" }
%"struct.eastl::basic_string<char>::HeapLayout" = type { ptr, i64, i64 }
%"struct.eastl::basic_string<char>::SSOLayout" = type { [23 x i8], %"struct.eastl::basic_string<char>::SSOLayout::SSOSize" }
%"struct.eastl::basic_string<char>::SSOLayout::SSOSize" = type { i8 }

@.str.13 = private unnamed_addr constant [24 x i8] c"%-24s - %s \09%2.4f secs\0A\00", align 1
@.str.14 = private unnamed_addr constant [7 x i8] c"FAILED\00", align 1
@.str.15 = private unnamed_addr constant [7 x i8] c"PASSED\00", align 1

; Function Attrs: mustprogress nounwind uwtable
define linkonce_odr dso_local noundef nonnull align 8 dereferenceable(24) ptr @_ZNK5eastl19compressed_pair_impINS_12basic_stringIcNS_9allocatorEE6LayoutES2_Li2EE5firstEv(ptr noundef nonnull align 8 dereferenceable(24) %this) #1 comdat align 2 {
entry:
  %this.addr = alloca ptr, align 8
  store ptr %this, ptr %this.addr, align 8
  %this1 = load ptr, ptr %this.addr, align 8
  %mFirst = getelementptr inbounds %"class.eastl::compressed_pair_imp", ptr %this1, i32 0, i32 0
  ret ptr %mFirst
}

; Function Attrs: mustprogress nounwind uwtable
define linkonce_odr dso_local noundef ptr @_ZNK5eastl12basic_stringIcNS_9allocatorEE6Layout11SSOBeginPtrEv(ptr noundef nonnull align 8 dereferenceable(24) %this) #1 comdat align 2 {
entry:
  %this.addr = alloca ptr, align 8
  store ptr %this, ptr %this.addr, align 8
  %this1 = load ptr, ptr %this.addr, align 8
  %0 = getelementptr inbounds %"struct.eastl::basic_string<char>::Layout", ptr %this1, i32 0, i32 0
  %mData = getelementptr inbounds %"struct.eastl::basic_string<char>::SSOLayout", ptr %0, i32 0, i32 0
  %arraydecay = getelementptr inbounds [23 x i8], ptr %mData, i64 0, i64 0
  ret ptr %arraydecay
}

; Function Attrs: mustprogress nounwind uwtable
define linkonce_odr dso_local noundef ptr @_ZNK5eastl12basic_stringIcNS_9allocatorEE6Layout12HeapBeginPtrEv(ptr noundef nonnull align 8 dereferenceable(24) %this) #1 comdat align 2 {
entry:
  %this.addr = alloca ptr, align 8
  store ptr %this, ptr %this.addr, align 8
  %this1 = load ptr, ptr %this.addr, align 8
  %0 = getelementptr inbounds %"struct.eastl::basic_string<char>::Layout", ptr %this1, i32 0, i32 0
  %mpBegin = getelementptr inbounds %"struct.eastl::basic_string<char>::HeapLayout", ptr %0, i32 0, i32 0
  %1 = load ptr, ptr %mpBegin, align 8
  ret ptr %1
}

; Function Attrs: mustprogress nounwind uwtable
define linkonce_odr dso_local noundef zeroext i1 @_ZNK5eastl12basic_stringIcNS_9allocatorEE6Layout6IsHeapEv(ptr noundef nonnull align 8 dereferenceable(24) %this) #1 comdat align 2 {
entry:
  %this.addr = alloca ptr, align 8
  store ptr %this, ptr %this.addr, align 8
  %this1 = load ptr, ptr %this.addr, align 8
  %0 = getelementptr inbounds %"struct.eastl::basic_string<char>::Layout", ptr %this1, i32 0, i32 0
  %mRemainingSizeField = getelementptr inbounds %"struct.eastl::basic_string<char>::SSOLayout", ptr %0, i32 0, i32 1
  %mnRemainingSize = getelementptr inbounds %"struct.eastl::basic_string<char>::SSOLayout::SSOSize", ptr %mRemainingSizeField, i32 0, i32 0
  %1 = load i8, ptr %mnRemainingSize, align 1
  %conv = sext i8 %1 to i64
  %and = and i64 %conv, 128
  %tobool = icmp ne i64 %and, 0
  %lnot = xor i1 %tobool, true
  %lnot2 = xor i1 %lnot, true
  ret i1 %lnot2
}

; Function Attrs: noreturn nounwind uwtable
define linkonce_odr hidden void @__clang_call_terminate(ptr noundef %0) #10 comdat {
  %2 = call ptr @__cxa_begin_catch(ptr %0) #13
  call void @_ZSt9terminatev() #17
  unreachable
}

; Function Attrs: mustprogress uwtable
define linkonce_odr dso_local noundef nonnull align 8 dereferenceable(24) ptr @_ZNK5eastl15compressed_pairINS_12basic_stringIcNS_9allocatorEE6LayoutES2_E5firstEv(ptr noundef nonnull align 8 dereferenceable(24) %this) #2 comdat align 2 {
entry:
  %this.addr = alloca ptr, align 8
  store ptr %this, ptr %this.addr, align 8
  %this1 = load ptr, ptr %this.addr, align 8
  %call = call noundef nonnull align 8 dereferenceable(24) ptr @_ZNK5eastl19compressed_pair_impINS_12basic_stringIcNS_9allocatorEE6LayoutES2_Li2EE5firstEv(ptr noundef nonnull align 8 dereferenceable(24) %this1)
  ret ptr %call
}

; Function Attrs: mustprogress nounwind uwtable
define linkonce_odr dso_local noundef ptr @_ZNK5eastl12basic_stringIcNS_9allocatorEE6Layout8BeginPtrEv(ptr noundef nonnull align 8 dereferenceable(24) %this) #1 comdat align 2 {
entry:
  %this.addr = alloca ptr, align 8
  store ptr %this, ptr %this.addr, align 8
  %this1 = load ptr, ptr %this.addr, align 8
  %call = call noundef zeroext i1 @_ZNK5eastl12basic_stringIcNS_9allocatorEE6Layout6IsHeapEv(ptr noundef nonnull align 8 dereferenceable(24) %this1) #13
  br i1 %call, label %cond.true, label %cond.false

cond.true:                                        ; preds = %entry
  %call2 = call noundef ptr @_ZNK5eastl12basic_stringIcNS_9allocatorEE6Layout12HeapBeginPtrEv(ptr noundef nonnull align 8 dereferenceable(24) %this1) #13
  br label %cond.end

cond.false:                                       ; preds = %entry
  %call3 = call noundef ptr @_ZNK5eastl12basic_stringIcNS_9allocatorEE6Layout11SSOBeginPtrEv(ptr noundef nonnull align 8 dereferenceable(24) %this1) #13
  br label %cond.end

cond.end:                                         ; preds = %cond.false, %cond.true
  %cond = phi ptr [ %call2, %cond.true ], [ %call3, %cond.false ]
  ret ptr %cond
}

; Function Attrs: mustprogress nounwind uwtable
define linkonce_odr dso_local noundef nonnull align 8 dereferenceable(24) ptr @_ZNK5eastl12basic_stringIcNS_9allocatorEE14internalLayoutEv(ptr noundef nonnull align 8 dereferenceable(24) %this) #1 comdat align 2 personality ptr @__gxx_personality_v0 {
entry:
  %this.addr = alloca ptr, align 8
  store ptr %this, ptr %this.addr, align 8
  %this1 = load ptr, ptr %this.addr, align 8
  %mPair = getelementptr inbounds %"class.eastl::basic_string", ptr %this1, i32 0, i32 0
  %call = invoke noundef nonnull align 8 dereferenceable(24) ptr @_ZNK5eastl15compressed_pairINS_12basic_stringIcNS_9allocatorEE6LayoutES2_E5firstEv(ptr noundef nonnull align 8 dereferenceable(24) %mPair)
          to label %invoke.cont unwind label %terminate.lpad

invoke.cont:                                      ; preds = %entry
  ret ptr %call

terminate.lpad:                                   ; preds = %entry
  %0 = landingpad { ptr, i32 }
          catch ptr null
  %1 = extractvalue { ptr, i32 } %0, 0
  call void @__clang_call_terminate(ptr %1) #17
  unreachable
}

; Function Attrs: mustprogress nounwind uwtable
define linkonce_odr dso_local noundef ptr @_ZNK5eastl12basic_stringIcNS_9allocatorEE5c_strEv(ptr noundef nonnull align 8 dereferenceable(24) %this) #1 comdat align 2 {
entry:
  %this.addr = alloca ptr, align 8
  store ptr %this, ptr %this.addr, align 8
  %this1 = load ptr, ptr %this.addr, align 8
  %call = call noundef nonnull align 8 dereferenceable(24) ptr @_ZNK5eastl12basic_stringIcNS_9allocatorEE14internalLayoutEv(ptr noundef nonnull align 8 dereferenceable(24) %this1) #13
  %call2 = call noundef ptr @_ZNK5eastl12basic_stringIcNS_9allocatorEE6Layout8BeginPtrEv(ptr noundef nonnull align 8 dereferenceable(24) %call) #13
  ret ptr %call2
}

; Function Attrs: mustprogress uwtable
define dso_local void @_ZN2EA8UnitTest4Test11WriteReportEv(ptr noundef nonnull align 8 dereferenceable(80) %this) unnamed_addr #2 align 2 {
entry:
  %this.addr = alloca ptr, align 8
  %buffer = alloca [384 x i8], align 16
  %pReportFunction = alloca ptr, align 8
  store ptr %this, ptr %this.addr, align 8
  %this1 = load ptr, ptr %this.addr, align 8
  %mpParentSuite = getelementptr inbounds %"class.EA::UnitTest::Test", ptr %this1, i32 0, i32 2
  %0 = load ptr, ptr %mpParentSuite, align 8
  %tobool = icmp ne ptr %0, null
  br i1 %tobool, label %lor.lhs.false, label %if.then

lor.lhs.false:                                    ; preds = %entry
  %mbForceReport = getelementptr inbounds %"class.EA::UnitTest::Test", ptr %this1, i32 0, i32 6
  %1 = load i8, ptr %mbForceReport, align 8
  %tobool2 = trunc i8 %1 to i1
  br i1 %tobool2, label %if.then, label %if.end

if.then:                                          ; preds = %lor.lhs.false, %entry
  %vtable = load ptr, ptr %this1, align 8
  %vfn = getelementptr inbounds ptr, ptr %vtable, i64 6
  %2 = load ptr, ptr %vfn, align 8
  %call = call noundef ptr %2(ptr noundef nonnull align 8 dereferenceable(80) %this1)
  store ptr %call, ptr %pReportFunction, align 8
  %arraydecay = getelementptr inbounds [384 x i8], ptr %buffer, i64 0, i64 0
  %msTestName = getelementptr inbounds %"class.EA::UnitTest::Test", ptr %this1, i32 0, i32 1
  %call3 = call noundef ptr @_ZNK5eastl12basic_stringIcNS_9allocatorEE5c_strEv(ptr noundef nonnull align 8 dereferenceable(24) %msTestName) #13
  %mnErrorCount = getelementptr inbounds %"class.EA::UnitTest::Test", ptr %this1, i32 0, i32 4
  %3 = load i64, ptr %mnErrorCount, align 8
  %tobool4 = icmp ne i64 %3, 0
  br i1 %tobool4, label %cond.true, label %cond.false

cond.true:                                        ; preds = %if.then
  br label %cond.end

cond.false:                                       ; preds = %if.then
  br label %cond.end

cond.end:                                         ; preds = %cond.false, %cond.true
  %cond-lvalue = phi ptr [ @.str.14, %cond.true ], [ @.str.15, %cond.false ]
  %arraydecay5 = getelementptr inbounds [7 x i8], ptr %cond-lvalue, i64 0, i64 0
  %mnElapsedTestTimeInMicroseconds = getelementptr inbounds %"class.EA::UnitTest::Test", ptr %this1, i32 0, i32 7
  %4 = load i64, ptr %mnElapsedTestTimeInMicroseconds, align 8
  %conv = uitofp i64 %4 to float
  %div = fdiv float %conv, 1.000000e+06
  %conv6 = fpext float %div to double
  %call7 = call noundef i32 (ptr, ptr, ...) @_ZN2EA4StdC7SprintfEPcPKcz(ptr noundef %arraydecay, ptr noundef @.str.13, ptr noundef %call3, ptr noundef %arraydecay5, double noundef %conv6)
  %5 = load ptr, ptr %pReportFunction, align 8
  %arraydecay8 = getelementptr inbounds [384 x i8], ptr %buffer, i64 0, i64 0
  call void %5(ptr noundef %arraydecay8)
  br label %if.end

if.end:                                           ; preds = %cond.end, %lor.lhs.false
  ret void
}