; Function Attrs: mustprogress uwtable
define dso_local void @_ZN2EA8UnitTest4Test11WriteReportEv(ptr noundef nonnull align 8 dereferenceable(80) %this) unnamed_addr #0 align 2 personality ptr @__gxx_personality_v0 {
entry:
  %buffer = alloca [384 x i8], align 16
  %mpParentSuite = getelementptr inbounds i8, ptr %this, i64 32
  %0 = load ptr, ptr %mpParentSuite, align 8
  %tobool.not = icmp eq ptr %0, null
  br i1 %tobool.not, label %if.then, label %lor.lhs.false

lor.lhs.false:                                    ; preds = %entry
  %mbForceReport = getelementptr inbounds i8, ptr %this, i64 64
  %1 = load i8, ptr %mbForceReport, align 8
  %2 = and i8 %1, 1
  %tobool2.not = icmp eq i8 %2, 0
  br i1 %tobool2.not, label %if.end, label %if.then

if.then:                                          ; preds = %lor.lhs.false, %entry
  %vtable = load ptr, ptr %this, align 8
  %vfn = getelementptr inbounds i8, ptr %vtable, i64 48
  %3 = load ptr, ptr %vfn, align 8
  %call = tail call noundef ptr %3(ptr noundef nonnull align 8 dereferenceable(80) %this)
  %msTestName = getelementptr inbounds i8, ptr %this, i64 8
  %mRemainingSizeField.i.i.i = getelementptr inbounds i8, ptr %this, i64 31
  %4 = load i8, ptr %mRemainingSizeField.i.i.i, align 1
  %tobool.i.i.i = icmp slt i8 %4, 0
  %5 = load ptr, ptr %msTestName, align 8
  %spec.select.i.i = select i1 %tobool.i.i.i, ptr %5, ptr %msTestName
  %mnErrorCount = getelementptr inbounds i8, ptr %this, i64 48
  %6 = load i64, ptr %mnErrorCount, align 8
  %tobool4.not = icmp eq i64 %6, 0
  %.str.14..str.15 = select i1 %tobool4.not, ptr @.str.15, ptr @.str.14
  %mnElapsedTestTimeInMicroseconds = getelementptr inbounds i8, ptr %this, i64 72
  %7 = load i64, ptr %mnElapsedTestTimeInMicroseconds, align 8
  %conv = uitofp i64 %7 to float
  %div = fdiv float %conv, 1.000000e+06
  %conv6 = fpext float %div to double
  %call7 = call noundef i32 (ptr, ptr, ...) @_ZN2EA4StdC7SprintfEPcPKcz(ptr noundef nonnull %buffer, ptr noundef nonnull @.str.13, ptr noundef %spec.select.i.i, ptr noundef nonnull %.str.14..str.15, double noundef %conv6)
  call void %call(ptr noundef nonnull %buffer)
  br label %if.end

if.end:                                           ; preds = %if.then, %lor.lhs.false
  ret void
}